; Function Attrs: nounwind uwtable
define hidden zeroext i1 @SDL_CancelGPUCommandBuffer_REAL(ptr noundef %0) local_unnamed_addr #0 {
  %2 = icmp eq ptr %0, null
  br i1 %2, label %3, label %5

3:                                                ; preds = %1
  %4 = tail call zeroext i1 (ptr, ...) @SDL_SetError_REAL(ptr noundef nonnull @.str.4, ptr noundef nonnull @.str.179) #7
  br label %.thread

5:                                                ; preds = %1
  %6 = load ptr, ptr %0, align 8
  %7 = getelementptr inbounds nuw i8, ptr %6, i64 684
  %8 = load i8, ptr %7, align 4, !range !5, !noundef !6
  %9 = trunc nuw i8 %8 to i1
  br i1 %9, label %10, label %16

10:                                               ; preds = %5
  %11 = getelementptr inbounds nuw i8, ptr %0, i64 120
  %12 = load i8, ptr %11, align 8, !range !5, !noundef !6
  %13 = trunc nuw i8 %12 to i1
  br i1 %13, label %.preheader, label %16

.preheader:                                       ; preds = %10, %.preheader
  %14 = tail call i32 @SDL_ReportAssertion_REAL(ptr noundef nonnull @SDL_CancelGPUCommandBuffer_REAL.sdl_assert_data, ptr noundef nonnull @__func__.SDL_CancelGPUCommandBuffer_REAL, ptr noundef nonnull @.str.8, i32 noundef 3100) #7
  switch i32 %14, label %.thread [
    i32 0, label %.preheader
    i32 1, label %15
  ]

15:                                               ; preds = %.preheader
  tail call void @llvm.debugtrap()
  br label %.thread

16:                                               ; preds = %10, %5
  %17 = getelementptr inbounds nuw i8, ptr %6, i64 608
  %18 = load ptr, ptr %17, align 8
  %19 = tail call zeroext i1 %18(ptr noundef nonnull %0) #7
  br label %.thread

.thread:                                          ; preds = %.preheader, %15, %16, %3
  %.0 = phi i1 [ false, %3 ], [ %19, %16 ], [ false, %15 ], [ false, %.preheader ]
  ret i1 %.0
}